; Function Attrs: nounwind uwtable
define dso_local i32 @auth_g_get_reconfig_fd(i32 noundef %0) local_unnamed_addr #2 {
  %2 = tail call i32 @pthread_rwlock_rdlock(ptr noundef nonnull @context_lock) #12
  %.not = icmp eq i32 %2, 0
  br i1 %.not, label %.preheader, label %6

.preheader:                                       ; preds = %1
  %3 = load i32, ptr @g_context_num, align 4
  %4 = icmp sgt i32 %3, 0
  br i1 %4, label %.lr.ph, label %.loopexit

.lr.ph:                                           ; preds = %.preheader
  %5 = load ptr, ptr @ops, align 8
  %wide.trip.count = zext nneg i32 %3 to i64
  br label %9

6:                                                ; preds = %1
  %7 = tail call ptr @__errno_location() #13
  store i32 %2, ptr %7, align 4
  tail call void (ptr, ...) @fatal_abort(ptr noundef nonnull @.str.19, ptr noundef nonnull @__func__.auth_g_get_reconfig_fd) #11
  unreachable

8:                                                ; preds = %9
  %indvars.iv.next = add nuw nsw i64 %indvars.iv, 1
  %exitcond.not = icmp eq i64 %indvars.iv.next, %wide.trip.count
  br i1 %exitcond.not, label %.loopexit, label %9, !llvm.loop !18

9:                                                ; preds = %.lr.ph, %8
  %indvars.iv = phi i64 [ 0, %.lr.ph ], [ %indvars.iv.next, %8 ]
  %10 = getelementptr inbounds nuw %struct.auth_ops_t, ptr %5, i64 %indvars.iv
  %11 = load ptr, ptr %10, align 8
  %12 = load i32, ptr %11, align 4
  %13 = icmp eq i32 %0, %12
  br i1 %13, label %14, label %8

14:                                               ; preds = %9
  %15 = getelementptr inbounds nuw i8, ptr %10, i64 120
  %16 = load ptr, ptr %15, align 8
  %17 = tail call i32 %16() #12
  br label %.loopexit

.loopexit:                                        ; preds = %8, %.preheader, %14
  %.0 = phi i32 [ %17, %14 ], [ -1, %.preheader ], [ -1, %8 ]
  %18 = tail call i32 @pthread_rwlock_unlock(ptr noundef nonnull @context_lock) #12
  %.not13 = icmp eq i32 %18, 0
  br i1 %.not13, label %21, label %19

19:                                               ; preds = %.loopexit
  %20 = tail call ptr @__errno_location() #13
  store i32 %18, ptr %20, align 4
  tail call void (ptr, ...) @fatal_abort(ptr noundef nonnull @.str.17, ptr noundef nonnull @__func__.auth_g_get_reconfig_fd) #11
  unreachable

21:                                               ; preds = %.loopexit
  ret i32 %.0
}